; Function Attrs: mustprogress nofree norecurse nosync nounwind willreturn memory(argmem: read) uwtable
define noundef i32 @_ZNK9grpc_core23CompressionAlgorithmSet15ToLegacyBitmaskEv(ptr noundef nonnull readonly align 1 captures(none) dereferenceable(1) %0) local_unnamed_addr #14 align 2 {
  %2 = load i8, ptr %0, align 1, !tbaa !6
  br label %3

3:                                                ; preds = %3, %1
  %.08.i = phi i64 [ 0, %1 ], [ %10, %3 ]
  %.067.i = phi i32 [ 0, %1 ], [ %.1.i, %3 ]
  %4 = trunc nuw nsw i64 %.08.i to i32
  %5 = trunc nuw i64 %.08.i to i8
  %6 = shl nuw nsw i8 1, %5
  %7 = and i8 %6, %2
  %.not.i = icmp eq i8 %7, 0
  %8 = shl nuw nsw i32 1, %4
  %9 = select i1 %.not.i, i32 0, i32 %8
  %.1.i = or i32 %9, %.067.i
  %10 = add nuw nsw i64 %.08.i, 1
  %exitcond.not.i = icmp eq i64 %10, 3
  br i1 %exitcond.not.i, label %_ZNK9grpc_core6BitSetILm3ELm8EE5ToIntIjEENSt9enable_ifIXaasr3std11is_unsignedIT_EE5valuegemlstS4_Li8ELm3EES4_E4typeEv.exit, label %3, !llvm.loop !30

_ZNK9grpc_core6BitSetILm3ELm8EE5ToIntIjEENSt9enable_ifIXaasr3std11is_unsignedIT_EE5valuegemlstS4_Li8ELm3EES4_E4typeEv.exit: ; preds = %3
  ret i32 %.1.i
}